(lp0
S'poi'
p1
aS'salary'
p2
aS'bonus'
p3
aS'to_messages'
p4
aS'deferral_payments'
p5
aS'deferred_income'
p6
aS'total_payments'
p7
aS'loan_advances'
p8
aS'restricted_stock_deferred'
p9
aS'total_stock_value'
p10
aS'exercised_stock_options'
p11
aS'expenses'
p12
aS'from_poi_to_this_person'
p13
aS'from_this_person_to_poi'
p14
aS'from_messages'
p15
aS'long_term_incentive'
p16
aS'shared_receipt_with_poi'
p17
aS'restricted_stock'
p18
aS'director_fees'
p19
aS'other'
p20
aS'fraction_from_poi_email'
p21
aS'fraction_to_poi_email'
p22
a.